
Disassembly of array:

TEXT Section .text, 0x1AB bytes at 0x100
000100:               _main:
000100: 4ef9             AADD #-7,SP
000102: 448b             MOV SP,AR3
000104: 76016fa8         MOV #367,AR2
000108: e60000           MOV #0,@#00h
00010b: e60200           MOV #0,@#01h
00010e: b46f0002         AMAR *+AR3(#0002h)
000112: 4c04             RPT #4
000114: 804594           MOV *AR2+,*AR3+
000117: e60000           MOV #0,@#00h
00011a: aa00_3d59        MOV @#00h,AR2 || MOV #5,AR1
00011e: 12a890_21        CMP AR2 >= AR1, TC1 || NOP
000122: 04641c           BCC #0x000141,TC1
000125: 448b             MOV SP,AR3
000127: 22a4             MOV AR2,T0
000129: b46f0002         AMAR *+AR3(#0002h)
00012d: aa6b             MOV *AR3(T0),AR2
00012f: d602aa           ADD @#01h,AR2,AR2
000132: ca02             MOV AR2,@#01h
000134: f7000001         ADD #1,@#00h
000138: aa00             MOV @#00h,AR2
00013a: 12a490_21        CMP AR2 < AR1, TC1 || NOP
00013e: 0464e4           BCC #0x000125,TC1
000141: a402             MOV @#01h,T0
000143: 4e07             AADD #7,SP
000145: 4804             RET
000147:               _exit:
000147: 38d6             PSH AR5,T2
000149: ed11088046       MOV dbl(*abs16(#08046h)),AC0
00014e: 4eff             AADD #-1,SP
000150: 9200             CALL AC0
000152: a6118000         MOV *abs16(#08000h),T2
000156: 040614           BCC #0x00016d,T2 == #0
000159: 2269             MOV T2,AR1
00015b: 5090             SFTL AR1,#1
00015d: 7b8002d9         ADD #-32766,AR1,AR5
000161: edaf08fffe       MOV dbl(*+AR5(#-0002h)),AC0
000166: 9200             CALL AC0
000168: 4216             SUB #1,T2
00016a: 0416f4           BCC #0x000161,T2 != #0
00016d: ed11088044       MOV dbl(*abs16(#08044h)),AC0
000172: 6380             BCC #0x00017b,AC0 == #0
000174: ed11088044       MOV dbl(*abs16(#08044h)),AC0
000179: 9200             CALL AC0
00017b: ed11088042       MOV dbl(*abs16(#08042h)),AC0
000180: 6380             BCC #0x000189,AC0 == #0
000182: ed11088042       MOV dbl(*abs16(#08042h)),AC0
000187: 9200             CALL AC0
000189: ed11088048       MOV dbl(*abs16(#08048h)),AC0
00018e: 9200             CALL AC0
000190: 6c0002a3         CALL _abort
000194: 4a7e             B #0x000194
000196:               _atexit:
000196: 4efd             AADD #-3,SP
000198: eb0008           MOV AC0,dbl(@#00h)
00019b: ed11088046       MOV dbl(*abs16(#08046h)),AC0
0001a0: 9200             CALL AC0
0001a2: 76002098         MOV #32,AR1
0001a6: aa118000         MOV *abs16(#08000h),AR2
0001aa: 12a490_21        CMP AR2 < AR1, TC1 || NOP
0001ae: 65e4             BCC #0x0001bb,TC1
0001b0: ed11088048       MOV dbl(*abs16(#08048h)),AC0
0001b5: 9200             CALL AC0
0001b7: 3c14             MOV #1,T0
0001b9: 4a21             B #0x0001dc
0001bb: a4118000         MOV *abs16(#08000h),T0
0001bf: 768002b8         MOV #-32766,AR3
0001c3: 7b000194         ADD #1,T0,AR1
0001c7: 5040             SFTL T0,#1
0001c9: ed0008           MOV dbl(@#00h),AC0
0001cc: c9118000         MOV AR1,*abs16(#08000h)
0001d0: eb6b08           MOV AC0,dbl(*AR3(T0))
0001d3: ed11088048       MOV dbl(*abs16(#08048h)),AC0
0001d8: 9200             CALL AC0
0001da: 3c04             MOV #0,T0
0001dc: 4e03             AADD #3,SP
0001de: 4804             RET
0001e0:               _auto_init:
0001e0: 4eff             AADD #-1,SP
0001e2: ec318e000156     AMAR *(#00156h),XAR0
0001e8: 368f             NOT AR0,AR7
0001ea: 040f29           BCC #0x000216,AR7 == #0
0001ed: aa03             MOV *AR0+,AR2
0001ef: 040a24           BCC #0x000216,AR2 == #0
0001f2: f9038808_431a    MOV uns(*AR0+) << #8,AC0 || SUB #1,AR2
0001f8: df0315_53ac      MOV uns(*AR0+),AC1 || MOV AR2,CSR
0001fd: 101138           OR AC1 << #-8, AC0
000200: 18ff11           AND #255,AC1,AC1
000203: 900e             MOV AC0,XAR6
000205: 6391             BCC #0x00020e,AC1 != #0
000207: 4800             RPT CSR
000209: 800714           MOV *AR0+,*AR6+
00020c: 4a5f             B #0x0001ed
00020e: 4800             RPT CSR
000210: 800714_9a        MOV *AR0+,port(*AR6+)
000214: 4a57             B #0x0001ed
000216: ec318e008000     AMAR *(#08000h),XAR0
00021c: ec31eeffffff     AMAR *(#0ffffffh),XAR6
000222: 36ef             NOT AR6,AR7
000224: 040f1a           BCC #0x000241,AR7 == #0
000227: edc308           MOV dbl(*AR6+),AC0
00022a: 040014           BCC #0x000241,AC0 == #0
00022d: ce00             MOV AR6,@#00h
00022f: ec31ee008000     AMAR *(#08000h),XAR6
000235: 9200             CALL AC0
000237: ec31eeffffff     AMAR *(#0ffffffh),XAR6
00023d: ae00             MOV @#00h,AR6
00023f: 4a66             B #0x000227
000241: ec31ee008000     AMAR *(#08000h),XAR6
000247: 4e01             AADD #1,SP
000249: 4804             RET
00024b:               _c_int00:
00024b: ec314e000368     AMAR *(#00368h),XSP
000251: 78055c02         MOV #1372,SSP
000255: f406f91f_98      AND #63775,mmap(@ST1_55)
00025a: f5064100_98      OR #16640,mmap(@ST1_55)
00025f: f496fa00_98      AND #64000,mmap(@ST2_55)
000264: f5968000_98      OR #32768,mmap(@ST2_55)
000269: 4656             BCLR ST3_SATA
00026b: 4617             BSET ST3_SMUL
00026d: ec318e008000     AMAR *(#08000h),XAR0
000273: 9089             MOV XAR0,XAR1
000275: 908a             MOV XAR0,XAR2
000277: 908b             MOV XAR0,XAR3
000279: 908c             MOV XAR0,XAR4
00027b: 908d             MOV XAR0,XAR5
00027d: 908e             MOV XAR0,XAR6
00027f: 908f             MOV XAR0,XAR7
000281: 9087             MOV XAR0,XCDP
000283: 9086             MOV XAR0,XDP
000285: 6c0001e0         CALL _auto_init
000289: 6c000100         CALL ___text__
00028d: 3c19             MOV #1,AR1
00028f: 6c000147         CALL _exit
000293:               __nop:
000293: 4804             RET
000295:               __register_lock:
000295: eb11088046       MOV AC0,dbl(*abs16(#08046h))
00029a: 4804             RET
00029c:               __register_unlock:
00029c: eb11088048       MOV AC0,dbl(*abs16(#08048h))
0002a1: 4804             RET
0002a3:               _abort:
0002a3:               .text:CIO_breakpoint:
0002a3: 20               NOP
0002a4:               C$$EXIT:
0002a4: 20               NOP
0002a5: 16000c           SIM_TRIG
0002a8: 4a7e             B #0x0002a8
0002aa: 20               NOP
0002ab:               ___etext__:
0002ab:               etext:

DATA Section .cinit, 0x19 words at 0x156
000156:               ___cinit__:
000156:               cinit:
000156:               .cinit:
000156: 0001             .word 0x0001
000157: 0080             .word 0x0080
000158: 0000             .word 0x0000
000159: 0000             .word 0x0000
00015a: 0002             .word 0x0002
00015b: 0080             .word 0x0080
00015c: 4200             .word 0x4200
00015d: 0000             .word 0x0000
00015e: 0000             .word 0x0000
00015f: 0002             .word 0x0002
000160: 0080             .word 0x0080
000161: 4400             .word 0x4400
000162: 0000             .word 0x0000
000163: 0000             .word 0x0000
000164:               .cinit:
000164: 0002             .word 0x0002
000165: 0080             .word 0x0080
000166: 4600             .word 0x4600
000167: 0000             .word 0x0000
000168: 0293             .word 0x0293
000169: 0002             .word 0x0002
00016a: 0080             .word 0x0080
00016b: 4800             .word 0x4800
00016c: 0000             .word 0x0000
00016d: 0293             .word 0x0293
00016e: 0000             .word 0x0000

DATA Section .const, 0x5 words at 0x16F
00016f:               .const:
00016f: 0001             .word 0x0001
000170: 0002             .word 0x0002
000171: 0003             .word 0x0003
000172: 0004             .word 0x0004
000173: 0005             .word 0x0005
